target datalayout = "e-m:e-p270:32:32-p271:32:32-p272:64:64-i64:64-i128:128-f80:128-n8:16:32:64-S128"
target triple = "x86_64-pc-linux-gnu"

%union.int_mv = type { i32 }
%struct.macroblockd_plane = type { i8, i32, i32, %struct.buf_2d, [2 x %struct.buf_2d], ptr, ptr, [8 x [2 x i16]], ptr, i8, i8, [8 x [19 x ptr]], [8 x [19 x ptr]] }
%struct.buf_2d = type { ptr, ptr, i32, i32, i32 }
%struct.macroblockd = type { i32, i32, i32, i8, [3 x %struct.macroblockd_plane], %struct.TileInfo, ptr, i8, i8, i8, i8, ptr, ptr, ptr, ptr, ptr, i32, i32, i32, i32, i32, [2 x ptr], ptr, [3 x ptr], [3 x [32 x i8]], ptr, [32 x i8], ptr, ptr, [32 x i8], [3 x %struct.WienerInfo], [3 x %struct.SgrprojInfo], i8, i8, [29 x [8 x %struct.candidate_mv]], [29 x [8 x i16]], i8, i8, [8 x i8], ptr, i32, [8 x i32], [8 x i32], i32, i32, ptr, ptr, i8, [4 x i8], [4 x i8], [7 x i8], [32768 x i8], %struct.cfl_ctx, [2 x i16], ptr, [2 x ptr] }
%struct.TileInfo = type { i32, i32, i32, i32, i32, i32 }
%struct.WienerInfo = type { [8 x i16], [8 x i16] }
%struct.SgrprojInfo = type { i32, [2 x i32] }
%struct.candidate_mv = type { %union.int_mv, %union.int_mv }
%struct.cfl_ctx = type { [1024 x i16], [1024 x i16], [2 x i32], i32, [2 x [32 x i16]], i32, i32, i32, i32, i32, i32 }

@tx_size_wide_unit = internal constant [19 x i32] [i32 1, i32 2, i32 4, i32 8, i32 16, i32 1, i32 2, i32 2, i32 4, i32 4, i32 8, i32 8, i32 16, i32 1, i32 4, i32 2, i32 8, i32 4, i32 16], align 16
@tx_size_high_unit = internal constant [19 x i32] [i32 1, i32 2, i32 4, i32 8, i32 16, i32 2, i32 1, i32 4, i32 2, i32 8, i32 4, i32 16, i32 8, i32 4, i32 1, i32 8, i32 2, i32 16, i32 4], align 16
@block_size_wide = internal constant [22 x i8] c"\04\04\08\08\08\10\10\10   @@@\80\80\04\10\08 \10@", align 16
@block_size_high = internal constant [22 x i8] c"\04\08\04\08\10\08\10 \10 @ @\80@\80\10\04 \08@\10", align 16

; Function Attrs: nounwind uwtable
define internal i32 @max_block_high(ptr noundef %0, i8 noundef zeroext %1, i32 noundef %2) #0 {
  %4 = alloca ptr, align 8
  %5 = alloca i8, align 1
  %6 = alloca i32, align 4
  %7 = alloca i32, align 4
  %8 = alloca ptr, align 8
  store ptr %0, ptr %4, align 8
  store i8 %1, ptr %5, align 1
  store i32 %2, ptr %6, align 4
  %9 = load i8, ptr %5, align 1
  %10 = zext i8 %9 to i64
  %11 = getelementptr inbounds [22 x i8], ptr @block_size_high, i64 0, i64 %10
  %12 = load i8, ptr %11, align 1
  %13 = zext i8 %12 to i32
  store i32 %13, ptr %7, align 4
  %14 = load ptr, ptr %4, align 8
  %15 = getelementptr inbounds nuw %struct.macroblockd, ptr %14, i32 0, i32 20
  %16 = load i32, ptr %15, align 16
  %17 = icmp slt i32 %16, 0
  br i1 %17, label %18, label %34

18:                                               ; preds = %3
  %19 = load ptr, ptr %4, align 8
  %20 = getelementptr inbounds nuw %struct.macroblockd, ptr %19, i32 0, i32 4
  %21 = load i32, ptr %6, align 4
  %22 = sext i32 %21 to i64
  %23 = getelementptr inbounds [3 x %struct.macroblockd_plane], ptr %20, i64 0, i64 %22
  store ptr %23, ptr %8, align 8
  %24 = load ptr, ptr %4, align 8
  %25 = getelementptr inbounds nuw %struct.macroblockd, ptr %24, i32 0, i32 20
  %26 = load i32, ptr %25, align 16
  %27 = load ptr, ptr %8, align 8
  %28 = getelementptr inbounds nuw %struct.macroblockd_plane, ptr %27, i32 0, i32 2
  %29 = load i32, ptr %28, align 8
  %30 = add nsw i32 3, %29
  %31 = ashr i32 %26, %30
  %32 = load i32, ptr %7, align 4
  %33 = add nsw i32 %32, %31
  store i32 %33, ptr %7, align 4
  br label %34

34:                                               ; preds = %18, %3
  %35 = load i32, ptr %7, align 4
  %36 = ashr i32 %35, 2
  ret i32 %36
}

; Function Attrs: nounwind uwtable
define internal i32 @max_block_wide(ptr noundef %0, i8 noundef zeroext %1, i32 noundef %2) #0 {
  %4 = alloca ptr, align 8
  %5 = alloca i8, align 1
  %6 = alloca i32, align 4
  %7 = alloca i32, align 4
  %8 = alloca ptr, align 8
  store ptr %0, ptr %4, align 8
  store i8 %1, ptr %5, align 1
  store i32 %2, ptr %6, align 4
  %9 = load i8, ptr %5, align 1
  %10 = zext i8 %9 to i64
  %11 = getelementptr inbounds [22 x i8], ptr @block_size_wide, i64 0, i64 %10
  %12 = load i8, ptr %11, align 1
  %13 = zext i8 %12 to i32
  store i32 %13, ptr %7, align 4
  %14 = load ptr, ptr %4, align 8
  %15 = getelementptr inbounds nuw %struct.macroblockd, ptr %14, i32 0, i32 18
  %16 = load i32, ptr %15, align 8
  %17 = icmp slt i32 %16, 0
  br i1 %17, label %18, label %34

18:                                               ; preds = %3
  %19 = load ptr, ptr %4, align 8
  %20 = getelementptr inbounds nuw %struct.macroblockd, ptr %19, i32 0, i32 4
  %21 = load i32, ptr %6, align 4
  %22 = sext i32 %21 to i64
  %23 = getelementptr inbounds [3 x %struct.macroblockd_plane], ptr %20, i64 0, i64 %22
  store ptr %23, ptr %8, align 8
  %24 = load ptr, ptr %4, align 8
  %25 = getelementptr inbounds nuw %struct.macroblockd, ptr %24, i32 0, i32 18
  %26 = load i32, ptr %25, align 8
  %27 = load ptr, ptr %8, align 8
  %28 = getelementptr inbounds nuw %struct.macroblockd_plane, ptr %27, i32 0, i32 1
  %29 = load i32, ptr %28, align 4
  %30 = add nsw i32 3, %29
  %31 = ashr i32 %26, %30
  %32 = load i32, ptr %7, align 4
  %33 = add nsw i32 %32, %31
  store i32 %33, ptr %7, align 4
  br label %34

34:                                               ; preds = %18, %3
  %35 = load i32, ptr %7, align 4
  %36 = ashr i32 %35, 2
  ret i32 %36
}

; Function Attrs: nounwind uwtable
define hidden void @av1_set_entropy_contexts(ptr noundef %0, ptr noundef %1, i32 noundef %2, i8 noundef zeroext %3, i8 noundef zeroext %4, i32 noundef %5, i32 noundef %6, i32 noundef %7) #0 {
  %9 = alloca ptr, align 8
  %10 = alloca ptr, align 8
  %11 = alloca i32, align 4
  %12 = alloca i8, align 1
  %13 = alloca i8, align 1
  %14 = alloca i32, align 4
  %15 = alloca i32, align 4
  %16 = alloca i32, align 4
  %17 = alloca ptr, align 8
  %18 = alloca ptr, align 8
  %19 = alloca i32, align 4
  %20 = alloca i32, align 4
  %21 = alloca i32, align 4
  %22 = alloca i32, align 4
  %23 = alloca i32, align 4
  %24 = alloca i32, align 4
  store ptr %0, ptr %9, align 8
  store ptr %1, ptr %10, align 8
  store i32 %2, ptr %11, align 4
  store i8 %3, ptr %12, align 1
  store i8 %4, ptr %13, align 1
  store i32 %5, ptr %14, align 4
  store i32 %6, ptr %15, align 4
  store i32 %7, ptr %16, align 4
  %25 = load ptr, ptr %10, align 8
  %26 = getelementptr inbounds nuw %struct.macroblockd_plane, ptr %25, i32 0, i32 5
  %27 = load ptr, ptr %26, align 8
  %28 = load i32, ptr %15, align 4
  %29 = sext i32 %28 to i64
  %30 = getelementptr inbounds i8, ptr %27, i64 %29
  store ptr %30, ptr %17, align 8
  %31 = load ptr, ptr %10, align 8
  %32 = getelementptr inbounds nuw %struct.macroblockd_plane, ptr %31, i32 0, i32 6
  %33 = load ptr, ptr %32, align 8
  %34 = load i32, ptr %16, align 4
  %35 = sext i32 %34 to i64
  %36 = getelementptr inbounds i8, ptr %33, i64 %35
  store ptr %36, ptr %18, align 8
  %37 = load i8, ptr %13, align 1
  %38 = zext i8 %37 to i64
  %39 = getelementptr inbounds [19 x i32], ptr @tx_size_wide_unit, i64 0, i64 %38
  %40 = load i32, ptr %39, align 4
  store i32 %40, ptr %19, align 4
  %41 = load i8, ptr %13, align 1
  %42 = zext i8 %41 to i64
  %43 = getelementptr inbounds [19 x i32], ptr @tx_size_high_unit, i64 0, i64 %42
  %44 = load i32, ptr %43, align 4
  store i32 %44, ptr %20, align 4
  %45 = load i32, ptr %14, align 4
  %46 = icmp ne i32 %45, 0
  br i1 %46, label %47, label %85

47:                                               ; preds = %8
  %48 = load ptr, ptr %9, align 8
  %49 = getelementptr inbounds nuw %struct.macroblockd, ptr %48, i32 0, i32 18
  %50 = load i32, ptr %49, align 8
  %51 = icmp slt i32 %50, 0
  br i1 %51, label %52, label %85

52:                                               ; preds = %47
  %53 = load ptr, ptr %9, align 8
  %54 = load i8, ptr %12, align 1
  %55 = load i32, ptr %11, align 4
  %56 = call i32 @max_block_wide(ptr noundef %53, i8 noundef zeroext %54, i32 noundef %55)
  store i32 %56, ptr %21, align 4
  %57 = load i32, ptr %19, align 4
  %58 = load i32, ptr %21, align 4
  %59 = load i32, ptr %15, align 4
  %60 = sub nsw i32 %58, %59
  %61 = icmp slt i32 %57, %60
  br i1 %61, label %62, label %64

62:                                               ; preds = %52
  %63 = load i32, ptr %19, align 4
  br label %68

64:                                               ; preds = %52
  %65 = load i32, ptr %21, align 4
  %66 = load i32, ptr %15, align 4
  %67 = sub nsw i32 %65, %66
  br label %68

68:                                               ; preds = %64, %62
  %69 = phi i32 [ %63, %62 ], [ %67, %64 ]
  store i32 %69, ptr %22, align 4
  %70 = load ptr, ptr %17, align 8
  %71 = load i32, ptr %14, align 4
  %72 = trunc i32 %71 to i8
  %73 = load i32, ptr %22, align 4
  %74 = sext i32 %73 to i64
  %75 = mul i64 1, %74
  call void @llvm.memset.p0.i64(ptr align 1 %70, i8 %72, i64 %75, i1 false)
  %76 = load ptr, ptr %17, align 8
  %77 = load i32, ptr %22, align 4
  %78 = sext i32 %77 to i64
  %79 = getelementptr inbounds i8, ptr %76, i64 %78
  %80 = load i32, ptr %19, align 4
  %81 = load i32, ptr %22, align 4
  %82 = sub nsw i32 %80, %81
  %83 = sext i32 %82 to i64
  %84 = mul i64 1, %83
  call void @llvm.memset.p0.i64(ptr align 1 %79, i8 0, i64 %84, i1 false)
  br label %92

85:                                               ; preds = %47, %8
  %86 = load ptr, ptr %17, align 8
  %87 = load i32, ptr %14, align 4
  %88 = trunc i32 %87 to i8
  %89 = load i32, ptr %19, align 4
  %90 = sext i32 %89 to i64
  %91 = mul i64 1, %90
  call void @llvm.memset.p0.i64(ptr align 1 %86, i8 %88, i64 %91, i1 false)
  br label %92

92:                                               ; preds = %85, %68
  %93 = load i32, ptr %14, align 4
  %94 = icmp ne i32 %93, 0
  br i1 %94, label %95, label %133

95:                                               ; preds = %92
  %96 = load ptr, ptr %9, align 8
  %97 = getelementptr inbounds nuw %struct.macroblockd, ptr %96, i32 0, i32 20
  %98 = load i32, ptr %97, align 16
  %99 = icmp slt i32 %98, 0
  br i1 %99, label %100, label %133

100:                                              ; preds = %95
  %101 = load ptr, ptr %9, align 8
  %102 = load i8, ptr %12, align 1
  %103 = load i32, ptr %11, align 4
  %104 = call i32 @max_block_high(ptr noundef %101, i8 noundef zeroext %102, i32 noundef %103)
  store i32 %104, ptr %23, align 4
  %105 = load i32, ptr %20, align 4
  %106 = load i32, ptr %23, align 4
  %107 = load i32, ptr %16, align 4
  %108 = sub nsw i32 %106, %107
  %109 = icmp slt i32 %105, %108
  br i1 %109, label %110, label %112

110:                                              ; preds = %100
  %111 = load i32, ptr %20, align 4
  br label %116

112:                                              ; preds = %100
  %113 = load i32, ptr %23, align 4
  %114 = load i32, ptr %16, align 4
  %115 = sub nsw i32 %113, %114
  br label %116

116:                                              ; preds = %112, %110
  %117 = phi i32 [ %111, %110 ], [ %115, %112 ]
  store i32 %117, ptr %24, align 4
  %118 = load ptr, ptr %18, align 8
  %119 = load i32, ptr %14, align 4
  %120 = trunc i32 %119 to i8
  %121 = load i32, ptr %24, align 4
  %122 = sext i32 %121 to i64
  %123 = mul i64 1, %122
  call void @llvm.memset.p0.i64(ptr align 1 %118, i8 %120, i64 %123, i1 false)
  %124 = load ptr, ptr %18, align 8
  %125 = load i32, ptr %24, align 4
  %126 = sext i32 %125 to i64
  %127 = getelementptr inbounds i8, ptr %124, i64 %126
  %128 = load i32, ptr %20, align 4
  %129 = load i32, ptr %24, align 4
  %130 = sub nsw i32 %128, %129
  %131 = sext i32 %130 to i64
  %132 = mul i64 1, %131
  call void @llvm.memset.p0.i64(ptr align 1 %127, i8 0, i64 %132, i1 false)
  br label %140

133:                                              ; preds = %95, %92
  %134 = load ptr, ptr %18, align 8
  %135 = load i32, ptr %14, align 4
  %136 = trunc i32 %135 to i8
  %137 = load i32, ptr %20, align 4
  %138 = sext i32 %137 to i64
  %139 = mul i64 1, %138
  call void @llvm.memset.p0.i64(ptr align 1 %134, i8 %136, i64 %139, i1 false)
  br label %140

140:                                              ; preds = %133, %116
  ret void
}