; Function Attrs: mustprogress nofree norecurse nosync nounwind willreturn memory(write, argmem: readwrite, inaccessiblemem: none) uwtable
define hidden void @av1_set_entropy_contexts(ptr nocapture noundef readonly %0, ptr nocapture noundef readonly %1, i32 noundef %2, i8 noundef zeroext %3, i8 noundef zeroext %4, i32 noundef %5, i32 noundef %6, i32 noundef %7) local_unnamed_addr #1 {
  %9 = getelementptr inbounds nuw i8, ptr %1, i64 112
  %10 = load ptr, ptr %9, align 8
  %11 = sext i32 %6 to i64
  %12 = getelementptr inbounds i8, ptr %10, i64 %11
  %13 = getelementptr inbounds nuw i8, ptr %1, i64 120
  %14 = load ptr, ptr %13, align 8
  %15 = sext i32 %7 to i64
  %16 = getelementptr inbounds i8, ptr %14, i64 %15
  %17 = zext i8 %4 to i64
  %18 = getelementptr inbounds [19 x i32], ptr @tx_size_wide_unit, i64 0, i64 %17
  %19 = load i32, ptr %18, align 4
  %20 = getelementptr inbounds [19 x i32], ptr @tx_size_high_unit, i64 0, i64 %17
  %21 = load i32, ptr %20, align 4
  %.not = icmp eq i32 %5, 0
  br i1 %.not, label %.thread48, label %23

.thread48:                                        ; preds = %8
  %22 = sext i32 %19 to i64
  tail call void @llvm.memset.p0.i64(ptr align 1 %12, i8 0, i64 %22, i1 false)
  br label %72

23:                                               ; preds = %8
  %24 = getelementptr inbounds nuw i8, ptr %0, i64 7928
  %25 = load i32, ptr %24, align 8
  %26 = icmp slt i32 %25, 0
  br i1 %26, label %.thread, label %46

.thread:                                          ; preds = %23
  %27 = zext i8 %3 to i64
  %28 = getelementptr inbounds [22 x i8], ptr @block_size_wide, i64 0, i64 %27
  %29 = load i8, ptr %28, align 1
  %30 = zext i8 %29 to i32
  %31 = getelementptr inbounds nuw i8, ptr %0, i64 16
  %32 = sext i32 %2 to i64
  %33 = getelementptr inbounds [3 x %struct.macroblockd_plane], ptr %31, i64 0, i64 %32, i32 1
  %34 = load i32, ptr %33, align 4
  %35 = add nsw i32 %34, 3
  %36 = ashr i32 %25, %35
  %37 = add nsw i32 %36, %30
  %38 = ashr i32 %37, 2
  %39 = sub nsw i32 %38, %6
  %40 = tail call i32 @llvm.smin.i32(i32 %19, i32 %39)
  %41 = trunc i32 %5 to i8
  %42 = sext i32 %40 to i64
  tail call void @llvm.memset.p0.i64(ptr align 1 %12, i8 %41, i64 %42, i1 false)
  %43 = getelementptr inbounds i8, ptr %12, i64 %42
  %44 = sub nsw i32 %19, %40
  %45 = sext i32 %44 to i64
  tail call void @llvm.memset.p0.i64(ptr align 1 %43, i8 0, i64 %45, i1 false)
  br label %49

46:                                               ; preds = %23
  %47 = trunc i32 %5 to i8
  %48 = sext i32 %19 to i64
  tail call void @llvm.memset.p0.i64(ptr align 1 %12, i8 %47, i64 %48, i1 false)
  br label %49

49:                                               ; preds = %46, %.thread
  %50 = getelementptr inbounds nuw i8, ptr %0, i64 7936
  %51 = load i32, ptr %50, align 16
  %52 = icmp slt i32 %51, 0
  br i1 %52, label %max_block_high.exit, label %72

max_block_high.exit:                              ; preds = %49
  %53 = zext i8 %3 to i64
  %54 = getelementptr inbounds [22 x i8], ptr @block_size_high, i64 0, i64 %53
  %55 = load i8, ptr %54, align 1
  %56 = zext i8 %55 to i32
  %57 = getelementptr inbounds nuw i8, ptr %0, i64 16
  %58 = sext i32 %2 to i64
  %59 = getelementptr inbounds [3 x %struct.macroblockd_plane], ptr %57, i64 0, i64 %58, i32 2
  %60 = load i32, ptr %59, align 8
  %61 = add nsw i32 %60, 3
  %62 = ashr i32 %51, %61
  %63 = add nsw i32 %62, %56
  %64 = ashr i32 %63, 2
  %65 = sub nsw i32 %64, %7
  %66 = tail call i32 @llvm.smin.i32(i32 %21, i32 %65)
  %67 = trunc i32 %5 to i8
  %68 = sext i32 %66 to i64
  tail call void @llvm.memset.p0.i64(ptr align 1 %16, i8 %67, i64 %68, i1 false)
  %69 = getelementptr inbounds i8, ptr %16, i64 %68
  %70 = sub nsw i32 %21, %66
  %71 = sext i32 %70 to i64
  tail call void @llvm.memset.p0.i64(ptr align 1 %69, i8 0, i64 %71, i1 false)
  br label %75

72:                                               ; preds = %.thread48, %49
  %73 = trunc i32 %5 to i8
  %74 = sext i32 %21 to i64
  tail call void @llvm.memset.p0.i64(ptr align 1 %16, i8 %73, i64 %74, i1 false)
  br label %75

75:                                               ; preds = %72, %max_block_high.exit
  ret void
}